target datalayout = "e-m:e-p270:32:32-p271:32:32-p272:64:64-i64:64-i128:128-f80:128-n8:16:32:64-S128"
target triple = "x86_64-pc-linux-gnu"

%union.pthread_mutex_t = type { %struct.__pthread_mutex_s }
%struct.__pthread_mutex_s = type { i32, i32, i32, i32, i32, i16, i16, %struct.__pthread_internal_list }
%struct.__pthread_internal_list = type { ptr, ptr }
%struct.job_state_t = type { i64, i64, i32, i64 }
%struct.slurm_cred_t = type { i32, %union.pthread_rwlock_t, ptr, i32, i16, ptr, i64, ptr, i8 }
%union.pthread_rwlock_t = type { %struct.__pthread_rwlock_arch_t }
%struct.__pthread_rwlock_arch_t = type { i32, i32, i32, i32, i32, i32, i32, i32, i8, [7 x i8], i64, i32 }
%struct.slurm_cred_arg_t = type { %struct.slurm_step_id_msg, i32, i32, ptr, i16, ptr, ptr, ptr, i32, ptr, ptr, ptr, ptr, ptr, ptr, ptr, i16, i64, ptr, ptr, ptr, ptr, ptr, i32, i32, ptr, i32, i16, ptr, ptr, ptr, i16, ptr, i64, ptr, ptr, ptr, i16, ptr, ptr, ptr, ptr, i32, ptr, ptr }
%struct.slurm_step_id_msg = type { i64, i32, i32, i32 }

@.str.2 = private unnamed_addr constant [29 x i8] c"%s: pthread_mutex_lock(): %m\00", align 1
@.str.7 = private unnamed_addr constant [31 x i8] c"%s: pthread_mutex_unlock(): %m\00", align 1
@cred_job_list = internal global ptr null, align 8
@cred_cache_mutex = internal global %union.pthread_mutex_t zeroinitializer, align 8
@__func__.cred_revoked = private unnamed_addr constant [13 x i8] c"cred_revoked\00", align 1

; Function Attrs: nounwind uwtable
define internal ptr @_find_job_state(i32 noundef %0) #0 {
  %2 = alloca i32, align 4
  store i32 %0, ptr %2, align 4
  %3 = load ptr, ptr @cred_job_list, align 8
  %4 = call ptr @list_find_first(ptr noundef %3, ptr noundef @_list_find_job_state, ptr noundef %2)
  ret ptr %4
}

; Function Attrs: nounwind uwtable
define dso_local zeroext i1 @cred_revoked(ptr noundef %0) #0 {
  %2 = alloca ptr, align 8
  %3 = alloca ptr, align 8
  %4 = alloca i8, align 1
  %5 = alloca i32, align 4
  %6 = alloca i32, align 4
  store ptr %0, ptr %2, align 8
  call void @llvm.lifetime.start.p0(i64 8, ptr %3) #7
  call void @llvm.lifetime.start.p0(i64 1, ptr %4) #7
  store i8 0, ptr %4, align 1
  br label %7

7:                                                ; preds = %1
  call void @llvm.lifetime.start.p0(i64 4, ptr %5) #7
  %8 = call i32 @pthread_mutex_lock(ptr noundef @cred_cache_mutex) #7
  store i32 %8, ptr %5, align 4
  %9 = load i32, ptr %5, align 4
  %10 = icmp ne i32 %9, 0
  br i1 %10, label %11, label %14

11:                                               ; preds = %7
  %12 = load i32, ptr %5, align 4
  %13 = call ptr @__errno_location() #8
  store i32 %12, ptr %13, align 4
  call void (ptr, ...) @fatal_abort(ptr noundef @.str.2, ptr noundef @__func__.cred_revoked) #9
  unreachable

14:                                               ; preds = %7
  call void @llvm.lifetime.end.p0(i64 4, ptr %5) #7
  br label %15

15:                                               ; preds = %14
  br label %16

16:                                               ; preds = %15
  %17 = load ptr, ptr %2, align 8
  %18 = getelementptr inbounds nuw %struct.slurm_cred_t, ptr %17, i32 0, i32 5
  %19 = load ptr, ptr %18, align 8
  %20 = getelementptr inbounds nuw %struct.slurm_cred_arg_t, ptr %19, i32 0, i32 0
  %21 = getelementptr inbounds nuw %struct.slurm_step_id_msg, ptr %20, i32 0, i32 1
  %22 = load i32, ptr %21, align 8
  %23 = call ptr @_find_job_state(i32 noundef %22)
  store ptr %23, ptr %3, align 8
  %24 = load ptr, ptr %3, align 8
  %25 = icmp ne ptr %24, null
  br i1 %25, label %26, label %40

26:                                               ; preds = %16
  %27 = load ptr, ptr %3, align 8
  %28 = getelementptr inbounds nuw %struct.job_state_t, ptr %27, i32 0, i32 3
  %29 = load i64, ptr %28, align 8
  %30 = icmp ne i64 %29, 0
  br i1 %30, label %31, label %40

31:                                               ; preds = %26
  %32 = load ptr, ptr %2, align 8
  %33 = getelementptr inbounds nuw %struct.slurm_cred_t, ptr %32, i32 0, i32 6
  %34 = load i64, ptr %33, align 8
  %35 = load ptr, ptr %3, align 8
  %36 = getelementptr inbounds nuw %struct.job_state_t, ptr %35, i32 0, i32 3
  %37 = load i64, ptr %36, align 8
  %38 = icmp sle i64 %34, %37
  br i1 %38, label %39, label %40

39:                                               ; preds = %31
  store i8 1, ptr %4, align 1
  br label %40

40:                                               ; preds = %39, %31, %26, %16
  br label %41

41:                                               ; preds = %40
  call void @llvm.lifetime.start.p0(i64 4, ptr %6) #7
  %42 = call i32 @pthread_mutex_unlock(ptr noundef @cred_cache_mutex) #7
  store i32 %42, ptr %6, align 4
  %43 = load i32, ptr %6, align 4
  %44 = icmp ne i32 %43, 0
  br i1 %44, label %45, label %48

45:                                               ; preds = %41
  %46 = load i32, ptr %6, align 4
  %47 = call ptr @__errno_location() #8
  store i32 %46, ptr %47, align 4
  call void (ptr, ...) @fatal_abort(ptr noundef @.str.7, ptr noundef @__func__.cred_revoked) #9
  unreachable

48:                                               ; preds = %41
  call void @llvm.lifetime.end.p0(i64 4, ptr %6) #7
  br label %49

49:                                               ; preds = %48
  br label %50

50:                                               ; preds = %49
  %51 = load i8, ptr %4, align 1, !range !8, !noundef !9
  %52 = trunc i8 %51 to i1
  call void @llvm.lifetime.end.p0(i64 1, ptr %4) #7
  call void @llvm.lifetime.end.p0(i64 8, ptr %3) #7
  ret i1 %52
}