; Function Attrs: nounwind uwtable
define dso_local zeroext i1 @cred_revoked(ptr noundef readonly captures(none) %0) local_unnamed_addr #0 {
  %2 = alloca i32, align 4
  %3 = tail call i32 @pthread_mutex_lock(ptr noundef nonnull @cred_cache_mutex) #10
  %.not = icmp eq i32 %3, 0
  br i1 %.not, label %6, label %4

4:                                                ; preds = %1
  %5 = tail call ptr @__errno_location() #11
  store i32 %3, ptr %5, align 4
  tail call void (ptr, ...) @fatal_abort(ptr noundef nonnull @.str.2, ptr noundef nonnull @__func__.cred_revoked) #12
  unreachable

6:                                                ; preds = %1
  %7 = getelementptr inbounds nuw i8, ptr %0, i64 80
  %8 = load ptr, ptr %7, align 8
  %9 = getelementptr inbounds nuw i8, ptr %8, i64 8
  %10 = load i32, ptr %9, align 8
  call void @llvm.lifetime.start.p0(i64 4, ptr nonnull %2)
  store i32 %10, ptr %2, align 4
  %11 = load ptr, ptr @cred_job_list, align 8
  %12 = call ptr @list_find_first(ptr noundef %11, ptr noundef nonnull @_list_find_job_state, ptr noundef nonnull %2) #10
  call void @llvm.lifetime.end.p0(i64 4, ptr nonnull %2)
  %.not13 = icmp eq ptr %12, null
  br i1 %.not13, label %19, label %13

13:                                               ; preds = %6
  %14 = getelementptr inbounds nuw i8, ptr %12, i64 24
  %15 = load i64, ptr %14, align 8
  %.not14 = icmp eq i64 %15, 0
  br i1 %.not14, label %19, label %16

16:                                               ; preds = %13
  %17 = getelementptr inbounds nuw i8, ptr %0, i64 88
  %18 = load i64, ptr %17, align 8
  %.not15 = icmp sle i64 %18, %15
  br label %19

19:                                               ; preds = %16, %6, %13
  %.0 = phi i1 [ false, %13 ], [ false, %6 ], [ %.not15, %16 ]
  %20 = call i32 @pthread_mutex_unlock(ptr noundef nonnull @cred_cache_mutex) #10
  %.not16 = icmp eq i32 %20, 0
  br i1 %.not16, label %23, label %21

21:                                               ; preds = %19
  %22 = tail call ptr @__errno_location() #11
  store i32 %20, ptr %22, align 4
  call void (ptr, ...) @fatal_abort(ptr noundef nonnull @.str.7, ptr noundef nonnull @__func__.cred_revoked) #12
  unreachable

23:                                               ; preds = %19
  ret i1 %.0
}